target datalayout = "e-m:e-p270:32:32-p271:32:32-p272:64:64-i64:64-i128:128-f80:128-n8:16:32:64-S128"
target triple = "x86_64-unknown-linux-gnu"

%"class.smt::eq_justification" = type { ptr }
%"class.smt::enode" = type { ptr, ptr, ptr, ptr, i32, i32, i32, i16, i32, i8, i8, %class.ptr_vector, %class.id_var_list, %"struct.smt::trans_justification", %class.approx_set, %class.approx_set, [0 x ptr] }
%class.ptr_vector = type { %class.vector }
%class.vector = type { ptr }
%class.id_var_list = type { i32, ptr }
%"struct.smt::trans_justification" = type { ptr, %"class.smt::eq_justification" }
%class.approx_set = type { %class.approx_set_tpl }
%class.approx_set_tpl = type { i64 }

@.str.16 = private unnamed_addr constant [106 x i8] c"generated/home/dtcxzyw/WorkSpace/Projects/compilers/llvm-opt-benchmark/bench/z3/z3/src/util/id_var_list.h\00", align 1
@.str.17 = private unnamed_addr constant [29 x i8] c"UNEXPECTED CODE WAS REACHED.\00", align 1

; Function Attrs: mustprogress nounwind uwtable
define linkonce_odr hidden noundef ptr @_ZNK11id_var_listILin1ELin1EE8get_nextEv(ptr noundef nonnull align 8 dereferenceable(16) %this) #4 comdat align 2 {
entry:
  %this.addr = alloca ptr, align 8
  store ptr %this, ptr %this.addr, align 8
  %this1 = load ptr, ptr %this.addr, align 8
  %m_next = getelementptr inbounds %class.id_var_list, ptr %this1, i32 0, i32 1
  %0 = load ptr, ptr %m_next, align 8
  ret ptr %0
}

; Function Attrs: mustprogress nounwind uwtable
define linkonce_odr hidden void @_ZN11id_var_listILin1ELin1EE7set_varEi(ptr noundef nonnull align 8 dereferenceable(16) %this, i32 noundef %v) #4 comdat align 2 {
entry:
  %this.addr = alloca ptr, align 8
  %v.addr = alloca i32, align 4
  store ptr %this, ptr %this.addr, align 8
  store i32 %v, ptr %v.addr, align 4
  %this1 = load ptr, ptr %this.addr, align 8
  %0 = load i32, ptr %v.addr, align 4
  %bf.load = load i32, ptr %this1, align 8
  %bf.value = and i32 %0, 16777215
  %bf.shl = shl i32 %bf.value, 8
  %bf.clear = and i32 %bf.load, 255
  %bf.set = or i32 %bf.clear, %bf.shl
  store i32 %bf.set, ptr %this1, align 8
  ret void
}

; Function Attrs: mustprogress nounwind uwtable
define linkonce_odr hidden noundef i32 @_ZNK11id_var_listILin1ELin1EE6get_idEv(ptr noundef nonnull align 8 dereferenceable(16) %this) #4 comdat align 2 {
entry:
  %this.addr = alloca ptr, align 8
  store ptr %this, ptr %this.addr, align 8
  %this1 = load ptr, ptr %this.addr, align 8
  %bf.load = load i32, ptr %this1, align 8
  %bf.shl = shl i32 %bf.load, 24
  %bf.ashr = ashr i32 %bf.shl, 24
  ret i32 %bf.ashr
}

; Function Attrs: mustprogress uwtable
define linkonce_odr hidden void @_ZN11id_var_listILin1ELin1EE7replaceEii(ptr noundef nonnull align 8 dereferenceable(16) %this, i32 noundef %v, i32 noundef %id) #5 comdat align 2 {
entry:
  %this.addr = alloca ptr, align 8
  %v.addr = alloca i32, align 4
  %id.addr = alloca i32, align 4
  %l = alloca ptr, align 8
  store ptr %this, ptr %this.addr, align 8
  store i32 %v, ptr %v.addr, align 4
  store i32 %id, ptr %id.addr, align 4
  %this1 = load ptr, ptr %this.addr, align 8
  store ptr %this1, ptr %l, align 8
  br label %while.cond

while.cond:                                       ; preds = %if.end, %entry
  %0 = load ptr, ptr %l, align 8
  %tobool = icmp ne ptr %0, null
  br i1 %tobool, label %while.body, label %while.end

while.body:                                       ; preds = %while.cond
  %1 = load ptr, ptr %l, align 8
  %call = call noundef i32 @_ZNK11id_var_listILin1ELin1EE6get_idEv(ptr noundef nonnull align 8 dereferenceable(16) %1)
  %2 = load i32, ptr %id.addr, align 4
  %cmp = icmp eq i32 %call, %2
  br i1 %cmp, label %if.then, label %if.end

if.then:                                          ; preds = %while.body
  %3 = load ptr, ptr %l, align 8
  %4 = load i32, ptr %v.addr, align 4
  call void @_ZN11id_var_listILin1ELin1EE7set_varEi(ptr noundef nonnull align 8 dereferenceable(16) %3, i32 noundef %4)
  ret void

if.end:                                           ; preds = %while.body
  %5 = load ptr, ptr %l, align 8
  %call2 = call noundef ptr @_ZNK11id_var_listILin1ELin1EE8get_nextEv(ptr noundef nonnull align 8 dereferenceable(16) %5)
  store ptr %call2, ptr %l, align 8
  br label %while.cond, !llvm.loop !10

while.end:                                        ; preds = %while.cond
  call void @_Z26notify_assertion_violationPKciS0_(ptr noundef @.str.16, i32 noundef 117, ptr noundef @.str.17)
  call void @exit(i32 noundef 114) #13
  unreachable
}

; Function Attrs: mustprogress uwtable
define hidden void @_ZN3smt5enode14replace_th_varEii(ptr noundef nonnull align 8 dereferenceable(112) %this, i32 noundef %v, i32 noundef %id) #5 align 2 {
entry:
  %this.addr = alloca ptr, align 8
  %v.addr = alloca i32, align 4
  %id.addr = alloca i32, align 4
  store ptr %this, ptr %this.addr, align 8
  store i32 %v, ptr %v.addr, align 4
  store i32 %id, ptr %id.addr, align 4
  %this1 = load ptr, ptr %this.addr, align 8
  %m_th_var_list = getelementptr inbounds %"class.smt::enode", ptr %this1, i32 0, i32 12
  %0 = load i32, ptr %v.addr, align 4
  %1 = load i32, ptr %id.addr, align 4
  call void @_ZN11id_var_listILin1ELin1EE7replaceEii(ptr noundef nonnull align 8 dereferenceable(16) %m_th_var_list, i32 noundef %0, i32 noundef %1)
  ret void
}