; Function Attrs: mustprogress uwtable
define hidden void @_ZN3smt5enode14replace_th_varEii(ptr nocapture noundef nonnull align 8 dereferenceable(112) %this, i32 noundef %v, i32 noundef %id) local_unnamed_addr #3 align 2 {
entry:
  %m_th_var_list = getelementptr inbounds i8, ptr %this, i64 64
  br label %while.body.i

while.body.i:                                     ; preds = %if.end.i, %entry
  %l.06.i = phi ptr [ %m_th_var_list, %entry ], [ %0, %if.end.i ]
  %bf.load.i.i = load i32, ptr %l.06.i, align 8
  %bf.shl.i.i = shl i32 %bf.load.i.i, 24
  %bf.ashr.i.i = ashr exact i32 %bf.shl.i.i, 24
  %cmp.i = icmp eq i32 %bf.ashr.i.i, %id
  br i1 %cmp.i, label %_ZN11id_var_listILin1ELin1EE7replaceEii.exit, label %if.end.i

if.end.i:                                         ; preds = %while.body.i
  %m_next.i.i = getelementptr inbounds i8, ptr %l.06.i, i64 8
  %0 = load ptr, ptr %m_next.i.i, align 8
  %tobool.not.i = icmp eq ptr %0, null
  br i1 %tobool.not.i, label %while.end.i, label %while.body.i, !llvm.loop !10

while.end.i:                                      ; preds = %if.end.i
  tail call void @_Z26notify_assertion_violationPKciS0_(ptr noundef nonnull @.str.16, i32 noundef 117, ptr noundef nonnull @.str.17)
  tail call void @exit(i32 noundef 114) #18
  unreachable

_ZN11id_var_listILin1ELin1EE7replaceEii.exit:     ; preds = %while.body.i
  %bf.value.i.i = shl i32 %v, 8
  %bf.clear.i.i = and i32 %bf.load.i.i, 255
  %bf.set.i.i = or disjoint i32 %bf.clear.i.i, %bf.value.i.i
  store i32 %bf.set.i.i, ptr %l.06.i, align 8
  ret void
}